; Function Attrs: mustprogress uwtable
define void @_ZN17grpc_event_engine12experimental19CreatePosixEndpointEPNS0_11EventHandleEPNS0_18PosixEngineClosureESt10shared_ptrINS0_11EventEngineEEONS0_15MemoryAllocatorERKNS0_15PosixTcpOptionsE(ptr dead_on_unwind noalias writable writeonly sret(%"class.std::unique_ptr.86") align 8 captures(none) %0, ptr noundef %1, ptr noundef %2, ptr noundef captures(none) %3, ptr noundef nonnull align 8 dereferenceable(16) %4, ptr noundef nonnull align 8 dereferenceable(72) %5) local_unnamed_addr #5 personality ptr @__gxx_personality_v0 {
  %7 = alloca %"class.std::shared_ptr.13", align 8
  tail call void @llvm.experimental.noalias.scope.decl(metadata !381)
  call void @llvm.lifetime.start.p0(i64 16, ptr nonnull %7)
  %8 = tail call noalias noundef nonnull dereferenceable(40) ptr @_Znwm(i64 noundef 40) #46, !noalias !381
  %9 = load ptr, ptr %3, align 8, !tbaa !252, !noalias !381
  store ptr %9, ptr %7, align 8, !tbaa !252, !noalias !381
  %10 = getelementptr inbounds nuw i8, ptr %7, i64 8
  %11 = getelementptr inbounds nuw i8, ptr %3, i64 8
  %12 = load ptr, ptr %11, align 8, !tbaa !165, !noalias !381
  store ptr null, ptr %11, align 8, !tbaa !165, !noalias !381
  store ptr %12, ptr %10, align 8, !tbaa !165, !noalias !381
  store ptr null, ptr %3, align 8, !tbaa !252, !noalias !381
  invoke void @_ZN17grpc_event_engine12experimental13PosixEndpointC2EPNS0_11EventHandleEPNS0_18PosixEngineClosureESt10shared_ptrINS0_11EventEngineEEONS0_15MemoryAllocatorERKNS0_15PosixTcpOptionsE(ptr noundef nonnull align 8 dereferenceable(33) %8, ptr noundef %1, ptr noundef %2, ptr noundef nonnull %7, ptr noundef nonnull align 8 dereferenceable(16) %4, ptr noundef nonnull align 8 dereferenceable(72) %5)
          to label %13 unwind label %36, !noalias !381

13:                                               ; preds = %6
  store ptr %8, ptr %0, align 8, !tbaa !384, !alias.scope !381
  %14 = load ptr, ptr %10, align 8, !tbaa !165, !noalias !381
  %.not.i.i.i = icmp eq ptr %14, null
  br i1 %.not.i.i.i, label %_ZSt11make_uniqueIN17grpc_event_engine12experimental13PosixEndpointEJRPNS1_11EventHandleERPNS1_18PosixEngineClosureESt10shared_ptrINS1_11EventEngineEENS1_15MemoryAllocatorERKNS1_15PosixTcpOptionsEEENSt8__detail9_MakeUniqIT_E15__single_objectEDpOT0_.exit, label %15

15:                                               ; preds = %13
  %16 = getelementptr inbounds nuw i8, ptr %14, i64 8
  %17 = load atomic i64, ptr %16 acquire, align 8, !noalias !381
  %18 = icmp eq i64 %17, 4294967297
  %19 = trunc i64 %17 to i32
  br i1 %18, label %20, label %28

20:                                               ; preds = %15
  store i32 0, ptr %16, align 8, !tbaa !331, !noalias !381
  %21 = getelementptr inbounds nuw i8, ptr %14, i64 12
  store i32 0, ptr %21, align 4, !tbaa !333, !noalias !381
  %22 = load ptr, ptr %14, align 8, !tbaa !80, !noalias !381
  %23 = getelementptr inbounds nuw i8, ptr %22, i64 16
  %24 = load ptr, ptr %23, align 8, !noalias !381
  call void %24(ptr noundef nonnull align 8 dereferenceable(16) %14) #41, !noalias !381
  %25 = load ptr, ptr %14, align 8, !tbaa !80, !noalias !381
  %26 = getelementptr inbounds nuw i8, ptr %25, i64 24
  %27 = load ptr, ptr %26, align 8, !noalias !381
  call void %27(ptr noundef nonnull align 8 dereferenceable(16) %14) #41, !noalias !381
  br label %_ZSt11make_uniqueIN17grpc_event_engine12experimental13PosixEndpointEJRPNS1_11EventHandleERPNS1_18PosixEngineClosureESt10shared_ptrINS1_11EventEngineEENS1_15MemoryAllocatorERKNS1_15PosixTcpOptionsEEENSt8__detail9_MakeUniqIT_E15__single_objectEDpOT0_.exit

28:                                               ; preds = %15
  %29 = load i8, ptr @__libc_single_threaded, align 1, !tbaa !129, !noalias !381
  %.not.i.i.i.i = icmp eq i8 %29, 0
  br i1 %.not.i.i.i.i, label %32, label %30

30:                                               ; preds = %28
  %31 = add nsw i32 %19, -1
  store i32 %31, ptr %16, align 4, !tbaa !122, !noalias !381
  br label %_ZN9__gnu_cxx27__exchange_and_add_dispatchEPii.exit.i.i.i.i

32:                                               ; preds = %28
  %33 = atomicrmw volatile add ptr %16, i32 -1 acq_rel, align 4, !noalias !381
  br label %_ZN9__gnu_cxx27__exchange_and_add_dispatchEPii.exit.i.i.i.i

_ZN9__gnu_cxx27__exchange_and_add_dispatchEPii.exit.i.i.i.i: ; preds = %32, %30
  %.0.i.i.i.i.i = phi i32 [ %19, %30 ], [ %33, %32 ]
  %34 = icmp eq i32 %.0.i.i.i.i.i, 1
  br i1 %34, label %35, label %_ZSt11make_uniqueIN17grpc_event_engine12experimental13PosixEndpointEJRPNS1_11EventHandleERPNS1_18PosixEngineClosureESt10shared_ptrINS1_11EventEngineEENS1_15MemoryAllocatorERKNS1_15PosixTcpOptionsEEENSt8__detail9_MakeUniqIT_E15__single_objectEDpOT0_.exit, !prof !86

35:                                               ; preds = %_ZN9__gnu_cxx27__exchange_and_add_dispatchEPii.exit.i.i.i.i
  call void @_ZNSt16_Sp_counted_baseILN9__gnu_cxx12_Lock_policyE2EE24_M_release_last_use_coldEv(ptr noundef nonnull align 8 dereferenceable(16) %14) #41, !noalias !381
  br label %_ZSt11make_uniqueIN17grpc_event_engine12experimental13PosixEndpointEJRPNS1_11EventHandleERPNS1_18PosixEngineClosureESt10shared_ptrINS1_11EventEngineEENS1_15MemoryAllocatorERKNS1_15PosixTcpOptionsEEENSt8__detail9_MakeUniqIT_E15__single_objectEDpOT0_.exit

36:                                               ; preds = %6
  %37 = landingpad { ptr, i32 }
          cleanup
  call void @_ZNSt12__shared_ptrIN17grpc_event_engine12experimental11EventEngineELN9__gnu_cxx12_Lock_policyE2EED2Ev(ptr noundef nonnull align 8 dereferenceable(16) %7) #41, !noalias !381
  call void @_ZdlPvm(ptr noundef nonnull %8, i64 noundef 40) #45, !noalias !381
  resume { ptr, i32 } %37

_ZSt11make_uniqueIN17grpc_event_engine12experimental13PosixEndpointEJRPNS1_11EventHandleERPNS1_18PosixEngineClosureESt10shared_ptrINS1_11EventEngineEENS1_15MemoryAllocatorERKNS1_15PosixTcpOptionsEEENSt8__detail9_MakeUniqIT_E15__single_objectEDpOT0_.exit: ; preds = %13, %20, %_ZN9__gnu_cxx27__exchange_and_add_dispatchEPii.exit.i.i.i.i, %35
  call void @llvm.lifetime.end.p0(i64 16, ptr nonnull %7)
  ret void
}